Certificate:
    Data:
        Version: 3 (0x2)
        Serial Number:
            1e:e8:f4:64:b7:62:c7:b6:94:5a:15:81:28:83:9d:b9:3f:9d:4e:4b
        Signature Algorithm: sha256WithRSAEncryption
        Issuer: C=AU, ST=Some-State, O=Internet Widgits Pty Ltd, CN=demo.ca
        Validity
            Not Before: Apr 13 12:32:36 2023 GMT
            Not After : Apr 12 12:32:36 2026 GMT
        Subject: C=AU, ST=Some-State, O=Internet Widgits Pty Ltd, CN=demo.ca
        Subject Public Key Info:
            Public Key Algorithm: rsaEncryption
                Public-Key: (2048 bit)
                Modulus:
                    00:ad:74:c6:f7:bd:00:cf:b7:68:56:9b:ea:49:d9:
                    50:ea:d2:1c:11:23:17:de:2b:0b:07:1e:4e:9f:55:
                    ed:16:6b:b1:c6:fd:0c:65:b1:45:9e:f7:0b:d5:0b:
                    b1:d3:c3:c3:f3:43:34:c4:b6:bb:69:96:0a:c2:f8:
                    a9:92:48:e7:6f:9c:bd:4f:83:3b:30:a3:c7:43:dc:
                    f3:47:11:f9:9a:16:c1:85:a1:e8:14:0d:95:17:c4:
                    e3:03:8c:91:92:f1:7c:35:a0:10:1b:94:4b:2d:9b:
                    6c:30:c5:ad:05:85:66:7d:eb:91:2d:ec:f0:3d:42:
                    aa:64:02:e9:90:f6:d4:f6:d0:2c:28:e3:5f:18:81:
                    5e:d3:67:ef:2a:77:cf:b3:2f:bf:a8:bf:ac:9a:8c:
                    2e:0f:26:75:81:b2:aa:bd:78:de:6d:bd:4b:50:4b:
                    6b:ef:1f:aa:ab:f8:ce:73:07:15:b6:c8:f5:8a:a2:
                    af:47:aa:fd:03:64:95:90:a2:b2:39:86:07:ae:cd:
                    4f:2d:95:50:0f:ef:59:9e:cc:9e:65:62:59:fc:a9:
                    59:32:2d:ac:01:b4:52:2f:c2:1e:81:c9:23:b9:7d:
                    6d:ba:03:67:48:25:e3:46:38:69:b5:f2:e4:74:a2:
                    a6:bc:81:96:8c:63:c7:fc:63:5f:f8:29:6b:27:73:
                    9f:e5
                Exponent: 65537 (0x10001)
        X509v3 extensions:
            X509v3 Subject Key Identifier: 
                8D:7C:C3:13:84:30:96:E4:06:A0:2B:7B:7A:6B:0F:CE:C5:03:D3:E5
            X509v3 Authority Key Identifier: 
                8D:7C:C3:13:84:30:96:E4:06:A0:2B:7B:7A:6B:0F:CE:C5:03:D3:E5
            X509v3 Basic Constraints: critical
                CA:TRUE
    Signature Algorithm: sha256WithRSAEncryption
    Signature Value:
        31:ed:3e:ba:b0:0f:2a:9c:cb:94:40:a9:86:10:e5:63:49:72:
        09:24:8e:03:d0:15:73:72:73:e6:c6:26:1b:4a:7f:5f:2f:6a:
        ec:b9:74:33:ef:dc:b8:86:74:af:78:3c:55:78:8e:09:a4:59:
        c4:51:a1:ee:5b:52:48:db:32:15:c7:24:c2:6e:b5:9b:0a:e4:
        18:74:50:e7:26:6d:4e:0d:4c:8e:b5:bc:b0:8a:b6:f9:3f:e5:
        b6:9c:ca:88:1a:a8:42:aa:36:f0:b7:e8:ef:79:93:db:33:18:
        aa:5e:a3:3b:f7:3a:31:e7:b5:fc:bf:fa:b1:67:29:55:f0:11:
        68:bc:1d:92:0f:66:cb:9a:77:27:ae:73:a6:1a:5a:82:c7:ce:
        4b:12:4b:fe:e1:73:04:d5:8e:67:a9:b7:80:cd:56:24:ee:28:
        55:b6:6a:21:1a:84:d2:31:28:8b:62:e8:1e:0e:fb:1f:f3:0a:
        4b:08:38:23:ef:c0:11:f2:7d:ad:88:5a:63:24:78:45:a2:78:
        9e:11:e4:97:10:cb:91:9b:19:f1:d2:ad:70:eb:d5:9d:4f:d1:
        16:49:f6:9c:21:8e:65:3e:d3:11:ab:a6:76:35:14:14:01:32:
        1b:81:0a:98:2f:46:c6:d6:b3:f9:43:b8:cf:c0:58:58:67:c7:
        c3:ea:42:dd
-----BEGIN CERTIFICATE-----
MIIDjzCCAnegAwIBAgIUHuj0ZLdix7aUWhWBKIOduT+dTkswDQYJKoZIhvcNAQEL
BQAwVzELMAkGA1UEBhMCQVUxEzARBgNVBAgMClNvbWUtU3RhdGUxITAfBgNVBAoM
GEludGVybmV0IFdpZGdpdHMgUHR5IEx0ZDEQMA4GA1UEAwwHZGVtby5jYTAeFw0y
MzA0MTMxMjMyMzZaFw0yNjA0MTIxMjMyMzZaMFcxCzAJBgNVBAYTAkFVMRMwEQYD
VQQIDApTb21lLVN0YXRlMSEwHwYDVQQKDBhJbnRlcm5ldCBXaWRnaXRzIFB0eSBM
dGQxEDAOBgNVBAMMB2RlbW8uY2EwggEiMA0GCSqGSIb3DQEBAQUAA4IBDwAwggEK
AoIBAQCtdMb3vQDPt2hWm+pJ2VDq0hwRIxfeKwsHHk6fVe0Wa7HG/QxlsUWe9wvV
C7HTw8PzQzTEtrtplgrC+KmSSOdvnL1Pgzswo8dD3PNHEfmaFsGFoegUDZUXxOMD
jJGS8Xw1oBAblEstm2wwxa0FhWZ965Et7PA9QqpkAumQ9tT20Cwo418YgV7TZ+8q
d8+zL7+ov6yajC4PJnWBsqq9eN5tvUtQS2vvH6qr+M5zBxW2yPWKoq9Hqv0DZJWQ
orI5hgeuzU8tlVAP71mezJ5lYln8qVkyLawBtFIvwh6BySO5fW26A2dIJeNGOGm1
8uR0oqa8gZaMY8f8Y1/4KWsnc5/lAgMBAAGjUzBRMB0GA1UdDgQWBBSNfMMThDCW
5AagK3t6aw/OxQPT5TAfBgNVHSMEGDAWgBSNfMMThDCW5AagK3t6aw/OxQPT5TAP
BgNVHRMBAf8EBTADAQH/MA0GCSqGSIb3DQEBCwUAA4IBAQAx7T66sA8qnMuUQKmG
EOVjSXIJJI4D0BVzcnPmxiYbSn9fL2rsuXQz79y4hnSveDxVeI4JpFnEUaHuW1JI
2zIVxyTCbrWbCuQYdFDnJm1ODUyOtbywirb5P+W2nMqIGqhCqjbwt+jveZPbMxiq
XqM79zox57X8v/qxZylV8BFovB2SD2bLmncnrnOmGlqCx85LEkv+4XME1Y5nqbeA
zVYk7ihVtmohGoTSMSiLYugeDvsf8wpLCDgj78AR8n2tiFpjJHhFonieEeSXEMuR
mxnx0q1w69WdT9EWSfacIY5lPtMRq6Z2NRQUATIbgQqYL0bG1rP5Q7jPwFhYZ8fD
6kLd
-----END CERTIFICATE-----
