Certificate:
    Data:
        Version: 3 (0x2)
        Serial Number:
            1e:e8:f4:64:b7:62:c7:b6:94:5a:15:81:28:83:9d:b9:3f:9d:4e:4c
        Signature Algorithm: sha256WithRSAEncryption
        Issuer: C=AU, ST=Some-State, O=Internet Widgits Pty Ltd, CN=demo.ca
        Validity
            Not Before: Apr 13 12:41:04 2023 GMT
            Not After : Apr 12 12:41:04 2024 GMT
        Subject: C=AU, ST=None, O=JRuby Dev Team, OU=jossl, CN=jruby.org
        Subject Public Key Info:
            Public Key Algorithm: rsaEncryption
                Public-Key: (2048 bit)
                Modulus:
                    00:84:32:48:ed:06:4d:c5:a0:7a:b7:23:5b:87:5f:
                    fc:e4:6d:85:41:ff:91:dd:06:09:30:b3:81:4b:e7:
                    86:32:bb:ce:5c:fd:0a:ae:5e:1d:4d:8a:19:f8:66:
                    1b:fe:ed:6d:6f:e2:14:84:14:07:16:d9:1e:83:ee:
                    f9:b6:d4:6e:11:32:9e:50:15:fe:f1:a2:16:b0:84:
                    b9:54:03:65:60:29:78:71:80:ce:20:bc:37:d9:6b:
                    25:5b:38:93:d0:cf:e3:cf:83:4c:4e:61:a3:e3:2b:
                    b1:f3:db:09:57:49:be:15:1d:28:03:ae:64:62:5c:
                    06:a6:80:f1:a1:31:e0:98:ed:02:bd:e2:5f:1e:a5:
                    ad:b8:02:ee:f4:5c:42:78:0c:6e:34:ed:92:23:a9:
                    3e:b0:e2:07:98:8e:dd:68:7b:58:b0:51:6e:39:c1:
                    41:c8:7b:83:b4:5d:5e:3e:b8:00:bc:63:e3:e9:31:
                    59:50:4e:1b:13:ac:db:e4:7e:9d:06:c4:da:00:b6:
                    33:ca:c7:cb:c7:dd:5a:64:87:54:d0:3a:a1:2b:00:
                    4b:71:a6:2a:00:32:75:78:01:11:f6:24:32:d6:5d:
                    bb:bb:a0:95:67:ac:99:ce:81:42:ad:5b:d8:6a:df:
                    61:68:e0:34:54:60:d8:9d:db:d5:79:c8:ef:33:43:
                    c1:0b
                Exponent: 65537 (0x10001)
        X509v3 extensions:
            X509v3 Basic Constraints: 
                CA:FALSE
            X509v3 Subject Key Identifier: 
                25:87:7B:AE:5E:CC:BF:41:F6:90:04:D1:E1:A4:20:7F:84:18:BD:A4
            X509v3 Authority Key Identifier: 
                8D:7C:C3:13:84:30:96:E4:06:A0:2B:7B:7A:6B:0F:CE:C5:03:D3:E5
    Signature Algorithm: sha256WithRSAEncryption
    Signature Value:
        44:d0:24:26:a7:81:2e:9d:28:d7:0c:b5:66:75:06:a3:ba:f5:
        c4:7f:2e:4e:6b:fe:b1:95:ca:25:c2:40:05:ba:b9:e1:8b:ac:
        03:57:2b:3b:2a:6e:d2:c7:35:92:5e:ed:90:79:ec:7a:ae:06:
        3c:b6:1c:ad:ac:03:90:ba:4c:19:bc:67:8e:c3:48:a1:07:e6:
        09:a0:a7:fd:1a:f2:2d:29:96:af:fc:7c:d7:48:c5:3e:1d:42:
        fc:61:ba:96:02:2f:74:b6:c3:82:38:81:3c:3f:b2:c7:2b:72:
        30:47:88:53:4b:7a:b0:63:31:42:de:3a:92:d1:ee:27:e4:45:
        79:93:40:4a:d3:b9:6e:2d:01:98:da:ba:db:34:e8:b4:76:f8:
        86:f2:49:03:11:f9:61:aa:3d:49:78:61:b4:f0:c0:f5:f4:29:
        9e:7b:3c:95:1d:1a:38:e7:7a:37:fc:eb:30:34:1f:4d:03:05:
        df:fe:b5:b6:c9:1a:fe:f0:09:cd:1e:26:ee:f7:0e:70:60:41:
        eb:14:b8:4f:ec:fb:02:64:6e:c8:08:74:07:49:ef:ed:a2:28:
        2e:c7:0d:a5:29:3a:8a:fe:81:7f:a9:89:0c:2c:14:32:00:36:
        0d:ad:8c:c7:ba:36:9b:5b:6c:15:be:52:59:26:97:a9:d3:5b:
        57:93:81:53
-----BEGIN CERTIFICATE-----
MIIDizCCAnOgAwIBAgIUHuj0ZLdix7aUWhWBKIOduT+dTkwwDQYJKoZIhvcNAQEL
BQAwVzELMAkGA1UEBhMCQVUxEzARBgNVBAgMClNvbWUtU3RhdGUxITAfBgNVBAoM
GEludGVybmV0IFdpZGdpdHMgUHR5IEx0ZDEQMA4GA1UEAwwHZGVtby5jYTAeFw0y
MzA0MTMxMjQxMDRaFw0yNDA0MTIxMjQxMDRaMFkxCzAJBgNVBAYTAkFVMQ0wCwYD
VQQIDAROb25lMRcwFQYDVQQKDA5KUnVieSBEZXYgVGVhbTEOMAwGA1UECwwFam9z
c2wxEjAQBgNVBAMMCWpydWJ5Lm9yZzCCASIwDQYJKoZIhvcNAQEBBQADggEPADCC
AQoCggEBAIQySO0GTcWgercjW4df/ORthUH/kd0GCTCzgUvnhjK7zlz9Cq5eHU2K
GfhmG/7tbW/iFIQUBxbZHoPu+bbUbhEynlAV/vGiFrCEuVQDZWApeHGAziC8N9lr
JVs4k9DP48+DTE5ho+MrsfPbCVdJvhUdKAOuZGJcBqaA8aEx4JjtAr3iXx6lrbgC
7vRcQngMbjTtkiOpPrDiB5iO3Wh7WLBRbjnBQch7g7RdXj64ALxj4+kxWVBOGxOs
2+R+nQbE2gC2M8rHy8fdWmSHVNA6oSsAS3GmKgAydXgBEfYkMtZdu7uglWesmc6B
Qq1b2GrfYWjgNFRg2J3b1XnI7zNDwQsCAwEAAaNNMEswCQYDVR0TBAIwADAdBgNV
HQ4EFgQUJYd7rl7Mv0H2kATR4aQgf4QYvaQwHwYDVR0jBBgwFoAUjXzDE4QwluQG
oCt7emsPzsUD0+UwDQYJKoZIhvcNAQELBQADggEBAETQJCangS6dKNcMtWZ1BqO6
9cR/Lk5r/rGVyiXCQAW6ueGLrANXKzsqbtLHNZJe7ZB57HquBjy2HK2sA5C6TBm8
Z47DSKEH5gmgp/0a8i0plq/8fNdIxT4dQvxhupYCL3S2w4I4gTw/sscrcjBHiFNL
erBjMULeOpLR7ifkRXmTQErTuW4tAZjauts06LR2+IbySQMR+WGqPUl4YbTwwPX0
KZ57PJUdGjjnejf86zA0H00DBd/+tbbJGv7wCc0eJu73DnBgQesUuE/s+wJkbsgI
dAdJ7+2iKC7HDaUpOor+gX+piQwsFDIANg2tjMe6NptbbBW+Ulkml6nTW1eTgVM=
-----END CERTIFICATE-----
