Certificate:
    Data:
        Version: 3 (0x2)
        Serial Number:
            7f:e0:e8:27:56:77:9b:da:39:df:f3:ae:e1:69:16:de:98:4f:fd:25
        Signature Algorithm: sha256WithRSAEncryption
        Issuer: C=AU, ST=Some-State, O=Internet Widgits Pty Ltd, CN=demo.ca
        Validity
            Not Before: Apr 20 11:13:57 2024 GMT
            Not After : Apr 20 11:13:57 2025 GMT
        Subject: C=AU, ST=None, O=JRuby Dev Team, OU=JOSSL, CN=jruby.org
        Subject Public Key Info:
            Public Key Algorithm: rsaEncryption
                Public-Key: (2048 bit)
                Modulus:
                    00:b3:83:9b:f8:e7:5d:25:cd:ac:dc:19:aa:46:ce:
                    ff:66:30:b0:9d:da:1f:24:32:b1:9a:82:fc:bb:d0:
                    4a:38:96:fe:b3:64:51:92:a0:11:5c:51:4f:f3:dc:
                    d9:29:5e:25:ed:8b:17:35:6b:b2:01:0a:10:ce:ea:
                    4d:67:7f:b3:a1:12:6d:dd:6e:31:11:12:a7:56:98:
                    4a:89:87:e7:e8:4d:23:aa:6a:28:6e:4f:b4:73:9b:
                    0f:6d:e7:32:5b:50:46:0e:06:5d:96:e4:5b:23:b1:
                    b3:f3:a4:9b:12:ff:a1:7c:1a:ef:76:6a:b0:52:bf:
                    03:1a:b8:7c:07:8d:f8:53:15:80:e5:37:38:05:01:
                    01:ef:25:d7:86:ea:1d:79:0f:fc:00:35:0d:7d:4d:
                    9c:9f:d8:d6:2e:42:df:72:13:8a:49:3a:59:ae:a7:
                    d9:a1:a7:92:74:ca:c1:ab:c5:47:04:ad:b1:3f:69:
                    02:a4:09:e0:94:bb:80:54:81:e6:8a:bc:1c:db:db:
                    60:87:66:77:8d:f9:2b:bf:74:ba:dc:3d:5a:20:fa:
                    5a:fd:50:4b:a7:43:f3:e2:11:04:31:0a:42:69:1f:
                    4c:6d:db:71:a0:5b:1a:e8:70:2c:69:3e:e9:ce:ce:
                    4e:c1:83:3c:39:cb:2b:8d:45:72:0a:3d:b8:74:c8:
                    f7:a9
                Exponent: 65537 (0x10001)
        X509v3 extensions:
            X509v3 Basic Constraints: 
                CA:FALSE
            X509v3 Subject Key Identifier: 
                A4:5D:C3:4D:EA:92:65:AE:F2:66:60:9B:E2:4C:EC:78:FD:CA:E9:A2
            X509v3 Authority Key Identifier: 
                8F:B4:94:C8:7F:CB:EF:00:89:B2:F6:C1:BE:44:4B:1C:12:54:3B:28
    Signature Algorithm: sha256WithRSAEncryption
    Signature Value:
        3a:cf:7b:5c:f4:46:9b:dc:77:38:68:1d:a9:48:f0:01:68:9a:
        9f:f7:34:4a:63:8a:d1:50:d6:18:a7:b3:ad:13:9f:46:01:e6:
        89:7d:81:de:5f:49:1f:76:18:ec:23:07:fb:a2:3d:e0:eb:29:
        67:12:2a:c0:ea:a6:51:69:37:81:49:c0:6e:6e:73:db:7d:09:
        92:db:fe:5b:9f:3f:a0:3e:96:1c:2a:40:bc:9b:73:3b:38:59:
        a4:e4:6b:07:a6:d3:3c:fd:48:07:fc:d8:3d:d4:e9:91:20:fd:
        d5:a7:98:4f:ea:8b:ab:39:fa:f3:95:e0:cd:af:85:0b:85:ed:
        72:ad:e0:74:83:88:b1:1f:1e:a7:13:56:4a:b5:6a:c5:6d:81:
        cd:e7:69:f2:b9:49:f0:50:ae:21:ff:12:af:2f:c4:2a:23:43:
        c3:73:64:f6:1a:b7:0f:9a:7b:3a:1f:93:6d:e3:30:23:00:dc:
        b1:f1:83:22:a2:e6:6a:b0:e5:89:6a:71:f6:76:c3:4d:1f:c7:
        4a:75:75:8a:85:6e:b6:11:89:9d:59:3a:ac:6a:bc:df:4e:ad:
        1e:db:4c:81:66:64:b8:8a:86:be:0e:f2:10:3e:94:63:e3:e5:
        97:9a:b1:24:6f:ea:ff:09:06:9c:e8:f7:38:e1:7e:32:5e:55:
        ae:39:5b:fa
-----BEGIN CERTIFICATE-----
MIIDizCCAnOgAwIBAgIUf+DoJ1Z3m9o53/Ou4WkW3phP/SUwDQYJKoZIhvcNAQEL
BQAwVzELMAkGA1UEBhMCQVUxEzARBgNVBAgMClNvbWUtU3RhdGUxITAfBgNVBAoM
GEludGVybmV0IFdpZGdpdHMgUHR5IEx0ZDEQMA4GA1UEAwwHZGVtby5jYTAeFw0y
NDA0MjAxMTEzNTdaFw0yNTA0MjAxMTEzNTdaMFkxCzAJBgNVBAYTAkFVMQ0wCwYD
VQQIDAROb25lMRcwFQYDVQQKDA5KUnVieSBEZXYgVGVhbTEOMAwGA1UECwwFSk9T
U0wxEjAQBgNVBAMMCWpydWJ5Lm9yZzCCASIwDQYJKoZIhvcNAQEBBQADggEPADCC
AQoCggEBALODm/jnXSXNrNwZqkbO/2YwsJ3aHyQysZqC/LvQSjiW/rNkUZKgEVxR
T/Pc2SleJe2LFzVrsgEKEM7qTWd/s6ESbd1uMRESp1aYSomH5+hNI6pqKG5PtHOb
D23nMltQRg4GXZbkWyOxs/OkmxL/oXwa73ZqsFK/Axq4fAeN+FMVgOU3OAUBAe8l
14bqHXkP/AA1DX1NnJ/Y1i5C33ITikk6Wa6n2aGnknTKwavFRwStsT9pAqQJ4JS7
gFSB5oq8HNvbYIdmd435K790utw9WiD6Wv1QS6dD8+IRBDEKQmkfTG3bcaBbGuhw
LGk+6c7OTsGDPDnLK41Fcgo9uHTI96kCAwEAAaNNMEswCQYDVR0TBAIwADAdBgNV
HQ4EFgQUpF3DTeqSZa7yZmCb4kzseP3K6aIwHwYDVR0jBBgwFoAUj7SUyH/L7wCJ
svbBvkRLHBJUOygwDQYJKoZIhvcNAQELBQADggEBADrPe1z0RpvcdzhoHalI8AFo
mp/3NEpjitFQ1hins60Tn0YB5ol9gd5fSR92GOwjB/uiPeDrKWcSKsDqplFpN4FJ
wG5uc9t9CZLb/lufP6A+lhwqQLybczs4WaTkawem0zz9SAf82D3U6ZEg/dWnmE/q
i6s5+vOV4M2vhQuF7XKt4HSDiLEfHqcTVkq1asVtgc3nafK5SfBQriH/Eq8vxCoj
Q8NzZPYatw+aezofk23jMCMA3LHxgyKi5mqw5YlqcfZ2w00fx0p1dYqFbrYRiZ1Z
OqxqvN9OrR7bTIFmZLiKhr4O8hA+lGPj5ZeasSRv6v8JBpzo9zjhfjJeVa45W/o=
-----END CERTIFICATE-----
