Certificate:
    Data:
        Version: 3 (0x2)
        Serial Number:
            7f:e0:e8:27:56:77:9b:da:39:df:f3:ae:e1:69:16:de:98:4f:fd:26
        Signature Algorithm: sha256WithRSAEncryption
        Issuer: C=AU, ST=Some-State, O=Internet Widgits Pty Ltd, CN=demo.ca
        Validity
            Not Before: Jul 25 15:14:15 2025 GMT
            Not After : Jul 25 15:14:15 2026 GMT
        Subject: C=CS, ST=Bohemia, O=JRuby, OU=JOSSL, CN=jruby.org
        Subject Public Key Info:
            Public Key Algorithm: rsaEncryption
                Public-Key: (4096 bit)
                Modulus:
                    00:b7:f5:4e:f1:f1:11:58:b5:b7:10:e2:e6:0a:b6:
                    25:f7:e3:bc:e0:c8:ce:aa:ac:8c:6d:98:8c:f3:e8:
                    04:f6:83:75:77:c4:1f:61:f1:a4:de:38:cf:e6:b0:
                    da:4a:85:d7:0a:14:06:dd:2a:ff:48:1c:a3:76:e5:
                    ef:95:8c:20:8d:49:37:14:8c:c9:9b:fe:92:85:82:
                    aa:f9:9a:28:b1:21:33:6f:85:6e:80:9d:cf:17:79:
                    b1:6d:d5:95:34:e2:52:72:be:6b:2b:f7:3c:69:d5:
                    11:2e:27:64:f5:98:5d:1b:40:4e:80:a2:3c:38:22:
                    de:a8:e9:2b:e3:b2:54:c7:4d:1e:51:5c:1b:49:1a:
                    46:47:4f:53:02:0e:c1:f5:40:11:03:e3:3e:c7:dd:
                    54:91:09:cb:d7:60:4f:89:36:60:23:f9:cc:be:ad:
                    0d:cc:60:67:e8:4c:06:8a:4c:4c:fc:6f:2a:99:9d:
                    23:56:19:cd:ce:78:4e:4f:a8:69:e7:dd:35:b4:7f:
                    a1:f2:3a:88:ed:a2:74:2e:83:e8:99:14:56:9f:45:
                    60:43:0d:83:31:b6:f6:ff:1d:45:49:fa:91:6c:a2:
                    4b:44:40:ae:77:85:55:0d:8a:cf:75:ca:75:dc:a9:
                    2b:55:2b:c2:d6:15:7c:02:dd:22:fa:6b:6e:ed:fe:
                    18:64:82:17:78:b2:82:5a:31:ef:ab:25:c6:1f:d5:
                    a2:bc:4b:bf:88:2c:5f:98:64:00:ae:96:a9:5f:a1:
                    22:3a:37:9d:7d:44:5d:d4:f3:d6:b2:c5:cf:5a:50:
                    5b:3f:b1:72:e5:87:2f:d1:44:37:35:c4:ef:bc:f2:
                    8f:c4:87:f8:64:65:5f:69:24:94:9e:ea:9d:d2:c0:
                    1b:2d:ea:17:0f:14:71:1e:8b:8d:a6:48:5b:1e:d7:
                    95:48:3a:fd:c7:c1:3b:a0:e4:06:d6:38:15:13:0a:
                    15:df:0d:69:86:c2:90:1e:9d:a8:d7:56:b3:88:2d:
                    ca:98:8f:88:d5:fa:6c:52:3a:bf:03:5a:59:53:46:
                    fe:6a:68:cb:9e:b3:f0:4f:b9:f5:01:2d:75:4a:00:
                    e8:3b:d6:25:4b:d3:4d:4a:fc:59:f2:b5:d0:60:92:
                    c0:23:a0:36:cb:eb:97:c3:68:80:b5:93:94:68:56:
                    73:66:25:25:c9:44:3f:56:b3:5a:50:d6:80:b6:8f:
                    db:93:a2:c3:9e:b6:8c:70:48:1b:c5:92:44:2b:ca:
                    ab:59:c0:93:57:03:21:19:68:67:f9:6a:0d:4b:95:
                    fa:76:00:17:78:f4:b0:2f:77:18:92:81:59:16:f7:
                    d1:cf:40:14:bd:b9:6d:5e:50:dc:dc:67:21:fd:8b:
                    32:3b:0d
                Exponent: 65537 (0x10001)
        X509v3 extensions:
            X509v3 Basic Constraints: 
                CA:FALSE
            X509v3 Subject Key Identifier: 
                79:85:4B:D2:26:9F:7B:14:09:A0:94:05:85:69:22:FC:AB:92:A8:6D
            X509v3 Authority Key Identifier: 
                8F:B4:94:C8:7F:CB:EF:00:89:B2:F6:C1:BE:44:4B:1C:12:54:3B:28
    Signature Algorithm: sha256WithRSAEncryption
    Signature Value:
        73:c9:bd:4e:ea:79:53:c1:ea:6a:9f:69:f8:59:89:a7:5c:64:
        eb:20:ae:93:78:a9:5d:01:8d:3d:dc:9a:b9:5f:7b:18:77:a5:
        55:1a:ad:cd:9a:24:4e:28:e7:33:55:e4:64:a4:e3:64:45:3f:
        6c:26:16:f0:56:c0:e8:de:0e:8c:27:aa:a1:0c:8a:74:9d:2c:
        3b:cc:5c:aa:91:67:e7:59:e4:83:79:eb:c5:71:06:c2:64:4f:
        96:27:26:7b:61:5f:59:99:88:91:bf:93:c4:4a:29:f3:63:a4:
        e6:c0:54:d2:50:d3:9c:10:83:45:d9:f2:22:47:f6:79:0a:26:
        04:b8:26:bf:61:41:a6:9c:17:4f:dd:3c:51:7a:87:cc:c6:92:
        2c:7d:b8:95:41:e9:91:8c:5d:d9:ca:88:a6:fb:1a:43:c4:92:
        19:89:61:e0:b8:73:c4:94:38:b7:0c:d9:cb:28:16:c0:02:65:
        51:96:1c:d9:16:64:e4:30:1e:d2:6e:3c:1a:e6:b5:16:38:5d:
        3f:92:96:21:95:bf:ac:30:c3:85:3e:ee:8a:31:c7:8d:c5:19:
        08:1b:7c:74:c3:18:84:2f:e8:31:c2:c5:7b:da:8a:56:6f:51:
        6f:c8:e0:91:fb:d6:09:41:42:34:89:36:80:88:e3:80:29:21:
        26:ea:ad:d8
-----BEGIN CERTIFICATE-----
MIIEhTCCA22gAwIBAgIUf+DoJ1Z3m9o53/Ou4WkW3phP/SYwDQYJKoZIhvcNAQEL
BQAwVzELMAkGA1UEBhMCQVUxEzARBgNVBAgMClNvbWUtU3RhdGUxITAfBgNVBAoM
GEludGVybmV0IFdpZGdpdHMgUHR5IEx0ZDEQMA4GA1UEAwwHZGVtby5jYTAeFw0y
NTA3MjUxNTE0MTVaFw0yNjA3MjUxNTE0MTVaMFMxCzAJBgNVBAYTAkNTMRAwDgYD
VQQIDAdCb2hlbWlhMQ4wDAYDVQQKDAVKUnVieTEOMAwGA1UECwwFSk9TU0wxEjAQ
BgNVBAMMCWpydWJ5Lm9yZzCCAiIwDQYJKoZIhvcNAQEBBQADggIPADCCAgoCggIB
ALf1TvHxEVi1txDi5gq2JffjvODIzqqsjG2YjPPoBPaDdXfEH2HxpN44z+aw2kqF
1woUBt0q/0gco3bl75WMII1JNxSMyZv+koWCqvmaKLEhM2+FboCdzxd5sW3VlTTi
UnK+ayv3PGnVES4nZPWYXRtAToCiPDgi3qjpK+OyVMdNHlFcG0kaRkdPUwIOwfVA
EQPjPsfdVJEJy9dgT4k2YCP5zL6tDcxgZ+hMBopMTPxvKpmdI1YZzc54Tk+oaefd
NbR/ofI6iO2idC6D6JkUVp9FYEMNgzG29v8dRUn6kWyiS0RArneFVQ2Kz3XKddyp
K1UrwtYVfALdIvprbu3+GGSCF3iyglox76slxh/VorxLv4gsX5hkAK6WqV+hIjo3
nX1EXdTz1rLFz1pQWz+xcuWHL9FENzXE77zyj8SH+GRlX2kklJ7qndLAGy3qFw8U
cR6LjaZIWx7XlUg6/cfBO6DkBtY4FRMKFd8NaYbCkB6dqNdWs4gtypiPiNX6bFI6
vwNaWVNG/mpoy56z8E+59QEtdUoA6DvWJUvTTUr8WfK10GCSwCOgNsvrl8NogLWT
lGhWc2YlJclEP1azWlDWgLaP25Oiw562jHBIG8WSRCvKq1nAk1cDIRloZ/lqDUuV
+nYAF3j0sC93GJKBWRb30c9AFL25bV5Q3NxnIf2LMjsNAgMBAAGjTTBLMAkGA1Ud
EwQCMAAwHQYDVR0OBBYEFHmFS9Imn3sUCaCUBYVpIvyrkqhtMB8GA1UdIwQYMBaA
FI+0lMh/y+8AibL2wb5ESxwSVDsoMA0GCSqGSIb3DQEBCwUAA4IBAQBzyb1O6nlT
wepqn2n4WYmnXGTrIK6TeKldAY093Jq5X3sYd6VVGq3NmiROKOczVeRkpONkRT9s
JhbwVsDo3g6MJ6qhDIp0nSw7zFyqkWfnWeSDeevFcQbCZE+WJyZ7YV9ZmYiRv5PE
SinzY6TmwFTSUNOcEINF2fIiR/Z5CiYEuCa/YUGmnBdP3TxReofMxpIsfbiVQemR
jF3Zyoim+xpDxJIZiWHguHPElDi3DNnLKBbAAmVRlhzZFmTkMB7Sbjwa5rUWOF0/
kpYhlb+sMMOFPu6KMceNxRkIG3x0wxiEL+gxwsV72opWb1FvyOCR+9YJQUI0iTaA
iOOAKSEm6q3Y
-----END CERTIFICATE-----
