Certificate:
    Data:
        Version: 3 (0x2)
        Serial Number: 17348753982565434862 (0xf0c327d45a74c5ee)
    Signature Algorithm: sha256WithRSAEncryption
        Issuer: C=AU, ST=Some-State, O=Demo Cert Authority, CN=demo.ca
        Validity
            Not Before: Nov  4 10:32:19 2016 GMT
            Not After : Nov  4 10:32:19 2017 GMT
        Subject: C=AU, ST=Some-State, O=Internet Widgits Pty Ltd, CN=example.com/emailAddress=hi@example.com
        Subject Public Key Info:
            Public Key Algorithm: rsaEncryption
                Public-Key: (2048 bit)
                Modulus:
                    00:d9:cd:60:d5:31:26:2d:c8:b2:d1:01:b4:fc:25:
                    fc:ba:02:e0:8d:3d:36:f6:1b:dd:7c:b6:87:65:4c:
                    b0:f5:a6:90:d6:86:1d:c9:7b:6f:67:96:0a:bb:cc:
                    62:9f:d8:c6:f9:2f:ea:32:07:37:2d:5c:39:ce:81:
                    b6:af:ab:55:40:ff:2e:03:8d:e6:01:a8:e0:8c:c4:
                    f0:dc:81:7f:63:0a:c2:fb:58:c4:fe:98:de:e8:c7:
                    86:fb:5c:d9:f4:1b:8e:bf:bd:86:21:99:99:b2:ec:
                    35:82:31:30:c0:09:f0:8a:eb:12:e7:1f:f0:fc:5b:
                    8b:31:a9:ac:aa:07:23:dc:71:15:d3:59:5f:c9:68:
                    4c:5e:3a:9a:61:9f:51:db:87:e6:60:4f:e2:79:bf:
                    bf:75:be:41:63:81:2a:d3:94:7b:db:38:6e:ce:06:
                    40:25:df:46:bf:b1:9d:9f:d2:4f:2a:27:fc:82:4c:
                    71:ff:5a:b2:db:77:2a:a7:d7:5e:54:e5:bf:ff:37:
                    fa:85:8b:39:fb:9d:74:a0:98:6a:73:f2:e9:af:c9:
                    1a:73:41:5c:46:c5:56:5e:89:24:7e:d6:9a:2a:d6:
                    3c:fe:ba:09:7d:e1:2f:b8:70:62:c1:35:1e:bf:1a:
                    f0:e4:5e:d8:1d:e6:76:05:ce:4b:51:89:7d:2c:9e:
                    06:69
                Exponent: 65537 (0x10001)
        X509v3 extensions:
            X509v3 Basic Constraints: 
                CA:FALSE
            Netscape Comment: 
                OpenSSL Generated Certificate
            X509v3 Subject Key Identifier: 
                DA:44:51:9F:2F:1F:50:18:A9:22:D3:6E:B3:5E:94:FD:E2:55:2E:46
            X509v3 Authority Key Identifier: 
                keyid:BA:5E:E9:90:3B:5B:F6:79:A2:D3:65:09:C5:39:6A:E7:43:6B:F8:3D

    Signature Algorithm: sha256WithRSAEncryption
         ba:8b:d6:6a:de:d1:94:98:f7:e9:4b:85:b3:85:50:41:83:cc:
         c8:de:2d:da:41:62:35:0b:fc:5c:dd:bf:f6:e1:22:b7:29:43:
         3f:f9:14:a2:15:36:6b:c7:21:38:fb:bd:01:ac:d1:82:57:7f:
         10:0f:c7:ef:c6:45:7d:e6:9c:c9:bd:e8:12:a5:41:fb:07:26:
         c2:38:5c:6f:82:c3:e2:47:a2:ec:f8:36:c5:70:26:81:f9:a5:
         6a:8f:f0:08:08:b2:a0:b1:03:38:d6:fd:00:af:99:f7:d6:7c:
         9b:65:68:2b:23:de:41:1d:95:07:b8:54:51:f2:fc:1a:58:74:
         bb:a2:c5:ef:38:1f:97:a3:93:57:5e:d9:00:eb:74:22:08:7d:
         05:a8:5e:5e:dd:6e:83:51:0b:8e:b0:42:b0:92:ed:cb:47:83:
         2e:2b:c2:2c:17:d7:ab:73:bb:51:e5:a5:d7:00:69:4c:fe:ad:
         64:8b:13:b7:06:e4:e9:79:1f:2c:6e:29:96:86:7c:ee:24:ca:
         bb:71:09:77:b4:d6:dd:59:99:8a:9e:23:cb:42:08:aa:7c:6e:
         63:4b:f9:e9:95:85:58:8e:40:63:e9:d6:ae:e5:1d:51:92:74:
         5a:24:e6:80:0c:2b:4b:e2:dd:b8:c7:08:bb:ee:34:1c:88:f3:
         99:15:3a:03
-----BEGIN CERTIFICATE-----
MIIDyjCCArKgAwIBAgIJAPDDJ9RadMXuMA0GCSqGSIb3DQEBCwUAMFIxCzAJBgNV
BAYTAkFVMRMwEQYDVQQIDApTb21lLVN0YXRlMRwwGgYDVQQKDBNEZW1vIENlcnQg
QXV0aG9yaXR5MRAwDgYDVQQDDAdkZW1vLmNhMB4XDTE2MTEwNDEwMzIxOVoXDTE3
MTEwNDEwMzIxOVowejELMAkGA1UEBhMCQVUxEzARBgNVBAgMClNvbWUtU3RhdGUx
ITAfBgNVBAoMGEludGVybmV0IFdpZGdpdHMgUHR5IEx0ZDEUMBIGA1UEAwwLZXhh
bXBsZS5jb20xHTAbBgkqhkiG9w0BCQEWDmhpQGV4YW1wbGUuY29tMIIBIjANBgkq
hkiG9w0BAQEFAAOCAQ8AMIIBCgKCAQEA2c1g1TEmLciy0QG0/CX8ugLgjT029hvd
fLaHZUyw9aaQ1oYdyXtvZ5YKu8xin9jG+S/qMgc3LVw5zoG2r6tVQP8uA43mAajg
jMTw3IF/YwrC+1jE/pje6MeG+1zZ9BuOv72GIZmZsuw1gjEwwAnwiusS5x/w/FuL
Mamsqgcj3HEV01lfyWhMXjqaYZ9R24fmYE/ieb+/db5BY4Eq05R72zhuzgZAJd9G
v7Gdn9JPKif8gkxx/1qy23cqp9deVOW//zf6hYs5+510oJhqc/Lpr8kac0FcRsVW
XokkftaaKtY8/roJfeEvuHBiwTUevxrw5F7YHeZ2Bc5LUYl9LJ4GaQIDAQABo3sw
eTAJBgNVHRMEAjAAMCwGCWCGSAGG+EIBDQQfFh1PcGVuU1NMIEdlbmVyYXRlZCBD
ZXJ0aWZpY2F0ZTAdBgNVHQ4EFgQU2kRRny8fUBipItNus16U/eJVLkYwHwYDVR0j
BBgwFoAUul7pkDtb9nmi02UJxTlq50Nr+D0wDQYJKoZIhvcNAQELBQADggEBALqL
1mre0ZSY9+lLhbOFUEGDzMjeLdpBYjUL/Fzdv/bhIrcpQz/5FKIVNmvHITj7vQGs
0YJXfxAPx+/GRX3mnMm96BKlQfsHJsI4XG+Cw+JHouz4NsVwJoH5pWqP8AgIsqCx
AzjW/QCvmffWfJtlaCsj3kEdlQe4VFHy/BpYdLuixe84H5ejk1de2QDrdCIIfQWo
Xl7dboNRC46wQrCS7ctHgy4rwiwX16tzu1HlpdcAaUz+rWSLE7cG5Ol5HyxuKZaG
fO4kyrtxCXe01t1ZmYqeI8tCCKp8bmNL+emVhViOQGPp1q7lHVGSdFok5oAMK0vi
3bjHCLvuNByI85kVOgM=
-----END CERTIFICATE-----
