Certificate:
    Data:
        Version: 3 (0x2)
        Serial Number: 17338272400282526650 (0xf09deae2cdcca3ba)
    Signature Algorithm: sha256WithRSAEncryption
        Issuer: C=AU, ST=Some-State, O=Demo Cert Authority, CN=demo.ca/emailAddress=demo@demo.ca
        Validity
            Not Before: May 15 15:49:58 2018 GMT
            Not After : May 15 15:49:58 2019 GMT
        Subject: C=AU, ST=Some-State, O=Demo Cert Authority, CN=demo.ca
        Subject Public Key Info:
            Public Key Algorithm: rsaEncryption
                Public-Key: (2048 bit)
                Modulus:
                    00:db:91:70:ea:0f:96:08:f6:ee:c6:df:2d:6d:15:
                    de:8e:c8:0a:d3:0e:63:65:56:a5:66:a9:80:2b:7a:
                    49:56:94:1e:83:e1:76:56:cf:b1:fd:ad:e3:da:1d:
                    6f:49:11:7c:c4:e5:a2:74:24:b7:9e:7c:f0:2d:45:
                    70:7a:3e:bd:46:61:be:4d:58:07:99:ad:3c:63:4f:
                    58:c3:fe:1e:96:01:51:1f:8f:56:b9:64:61:9b:6c:
                    43:71:62:88:1f:38:03:8c:9f:a5:56:2b:8d:24:ab:
                    70:06:d8:83:91:00:82:97:3c:7e:bd:5d:f7:70:01:
                    64:59:14:dc:cf:43:66:f8:64:50:68:b5:c1:b2:e4:
                    93:31:a5:cf:a2:a5:c0:47:c0:8f:c1:e5:f6:6a:93:
                    5d:1a:ec:df:8e:32:70:3b:ab:31:60:0b:b9:7d:02:
                    91:80:c4:e8:48:e8:0a:cf:d5:b3:5d:0e:df:5d:3c:
                    bf:26:75:b2:c0:c3:f6:6e:73:cd:87:af:b5:14:c9:
                    38:2f:43:92:cc:88:7b:92:2c:52:92:0d:be:c1:39:
                    02:16:fd:d8:2d:0a:0f:a5:d4:24:3d:b0:f5:e3:6a:
                    d6:c1:ca:ad:2d:b0:ec:f9:f6:b1:de:91:c7:fd:02:
                    62:12:c9:de:90:37:5f:65:0b:6a:d4:8c:94:f4:ec:
                    0d:a1
                Exponent: 65537 (0x10001)
        X509v3 extensions:
            X509v3 Basic Constraints: 
                CA:FALSE
            Netscape Comment: 
                OpenSSL Generated Certificate
            X509v3 Subject Key Identifier: 
                B6:81:FB:CF:C7:6E:09:54:90:5F:A5:5F:47:C1:DC:E1:F7:E5:CC:AF
            X509v3 Authority Key Identifier: 
                keyid:C6:17:42:6B:7F:B6:44:30:67:01:3D:44:83:9D:0F:B4:52:A1:D7:B7

    Signature Algorithm: sha256WithRSAEncryption
         9e:2c:e5:e5:f2:0a:cf:c4:1b:d7:34:97:6b:b4:17:ef:1c:35:
         5b:d6:e4:8e:9a:b3:3d:f5:82:26:51:86:6d:43:04:0b:e1:bc:
         27:3f:ae:41:ee:a3:a0:98:cb:38:a8:db:a9:10:2a:84:a9:f0:
         51:40:24:2a:2c:1a:c4:c2:35:91:95:a7:39:1d:3c:25:13:cb:
         d3:2e:88:62:bf:18:f7:c5:c7:d8:27:5a:39:a8:f4:5e:7b:5b:
         79:e2:25:29:e3:c4:e6:84:fe:ed:79:9d:f4:d7:89:cb:80:93:
         62:9e:e8:b0:07:c2:37:c2:4a:74:e1:a4:5f:4e:98:e6:a6:c4:
         00:79:c8:8a:62:98:ed:48:04:e3:15:50:9b:e0:72:45:5b:65:
         14:28:99:9f:22:24:e7:b2:43:07:08:fd:dc:a6:78:8c:4e:be:
         e7:40:87:dc:72:ed:01:de:a8:90:55:25:9b:0c:10:3d:bd:00:
         78:74:4e:39:82:df:8d:16:d4:bf:20:1d:1e:e0:45:e8:67:88:
         a8:dc:1a:be:b3:4e:18:75:75:a3:fc:91:66:89:7d:90:cb:b2:
         77:71:99:51:f8:42:0b:ba:7d:29:ac:bd:40:35:ce:ea:8c:8e:
         3d:c5:6d:f3:d2:57:49:ce:31:79:25:48:79:c9:23:15:c8:b6:
         bb:4d:3c:5f
-----BEGIN CERTIFICATE-----
MIIDvzCCAqegAwIBAgIJAPCd6uLNzKO6MA0GCSqGSIb3DQEBCwUAMG8xCzAJBgNV
BAYTAkFVMRMwEQYDVQQIDApTb21lLVN0YXRlMRwwGgYDVQQKDBNEZW1vIENlcnQg
QXV0aG9yaXR5MRAwDgYDVQQDDAdkZW1vLmNhMRswGQYJKoZIhvcNAQkBFgxkZW1v
QGRlbW8uY2EwHhcNMTgwNTE1MTU0OTU4WhcNMTkwNTE1MTU0OTU4WjBSMQswCQYD
VQQGEwJBVTETMBEGA1UECAwKU29tZS1TdGF0ZTEcMBoGA1UECgwTRGVtbyBDZXJ0
IEF1dGhvcml0eTEQMA4GA1UEAwwHZGVtby5jYTCCASIwDQYJKoZIhvcNAQEBBQAD
ggEPADCCAQoCggEBANuRcOoPlgj27sbfLW0V3o7ICtMOY2VWpWapgCt6SVaUHoPh
dlbPsf2t49odb0kRfMTlonQkt5588C1FcHo+vUZhvk1YB5mtPGNPWMP+HpYBUR+P
VrlkYZtsQ3FiiB84A4yfpVYrjSSrcAbYg5EAgpc8fr1d93ABZFkU3M9DZvhkUGi1
wbLkkzGlz6KlwEfAj8Hl9mqTXRrs344ycDurMWALuX0CkYDE6EjoCs/Vs10O3108
vyZ1ssDD9m5zzYevtRTJOC9DksyIe5IsUpINvsE5Ahb92C0KD6XUJD2w9eNq1sHK
rS2w7Pn2sd6Rx/0CYhLJ3pA3X2ULatSMlPTsDaECAwEAAaN7MHkwCQYDVR0TBAIw
ADAsBglghkgBhvhCAQ0EHxYdT3BlblNTTCBHZW5lcmF0ZWQgQ2VydGlmaWNhdGUw
HQYDVR0OBBYEFLaB+8/HbglUkF+lX0fB3OH35cyvMB8GA1UdIwQYMBaAFMYXQmt/
tkQwZwE9RIOdD7RSode3MA0GCSqGSIb3DQEBCwUAA4IBAQCeLOXl8grPxBvXNJdr
tBfvHDVb1uSOmrM99YImUYZtQwQL4bwnP65B7qOgmMs4qNupECqEqfBRQCQqLBrE
wjWRlac5HTwlE8vTLohivxj3xcfYJ1o5qPRee1t54iUp48TmhP7teZ3014nLgJNi
nuiwB8I3wkp04aRfTpjmpsQAeciKYpjtSATjFVCb4HJFW2UUKJmfIiTnskMHCP3c
pniMTr7nQIfccu0B3qiQVSWbDBA9vQB4dE45gt+NFtS/IB0e4EXoZ4io3Bq+s04Y
dXWj/JFmiX2Qy7J3cZlR+EILun0prL1ANc7qjI49xW3z0ldJzjF5JUh5ySMVyLa7
TTxf
-----END CERTIFICATE-----
