Certificate:
    Data:
        Version: 1 (0x0)
        Serial Number: 1 (0x1)
        Signature Algorithm: md5WithRSAEncryption
        Issuer: C=AU, ST=Some-State, O=Internet Widgits Pty Ltd
        Validity
            Not Before: Sep 10 16:45:04 2015 GMT
            Not After : Sep  9 16:45:04 2016 GMT
        Subject: C=AU, ST=Some-State, O=Internet Widgits Pty Ltd, CN=example.com
        Subject Public Key Info:
            Public Key Algorithm: rsaEncryption
            RSA Public Key: (1024 bit)
                Modulus (1024 bit):
                    00:db:95:d0:12:c8:78:dc:eb:c2:6f:4a:ea:d2:cc:
                    21:e1:e9:16:69:11:84:25:c6:d0:2a:4c:a9:50:7a:
                    23:cb:89:ba:40:d9:14:7a:72:19:90:44:20:46:b0:
                    5d:f2:f6:6f:53:e2:f0:6a:e5:1c:0e:08:4e:0e:89:
                    96:af:97:6b:a3:bd:0a:bb:5f:b8:64:d2:12:ed:66:
                    2c:64:36:90:41:78:61:95:72:84:da:50:53:f2:a4:
                    02:a2:b2:9b:ee:7d:d4:bd:26:07:06:28:80:af:16:
                    e1:3b:73:9a:93:dd:48:98:52:0a:cd:6a:d2:9a:95:
                    02:a5:2c:b6:b7:eb:1f:de:5d
                Exponent: 65537 (0x10001)
    Signature Algorithm: md5WithRSAEncryption
        76:a4:3c:20:c8:4d:a2:bf:ac:34:93:a4:50:58:68:f1:a6:72:
        db:eb:27:00:f4:2d:81:97:cb:b8:7f:a6:21:45:53:dc:2d:a4:
        3a:62:66:bb:8b:a3:30:b1:e8:2d:d4:19:0d:36:22:2e:1d:77:
        f9:bc:b8:9a:47:7a:60:70:83:04:52:a5:e0:14:c9:2e:18:38:
        8a:7b:10:da:0a:48:45:3f:7c:97:65:aa:ea:0c:ae:9f:77:c0:
        9f:30:1c:e4:55:29:21:cf:b4:ba:60:72:b2:be:4e:29:9f:d3:
        1f:c3:82:ed:04:87:b7:11:3f:4a:71:84:9d:34:b8:bf:4f:41:
        f0:ed
-----BEGIN CERTIFICATE-----
MIICDzCCAXgCAQEwDQYJKoZIhvcNAQEEBQAwRTELMAkGA1UEBhMCQVUxEzARBgNV
BAgTClNvbWUtU3RhdGUxITAfBgNVBAoTGEludGVybmV0IFdpZGdpdHMgUHR5IEx0
ZDAeFw0xNTA5MTAxNjQ1MDRaFw0xNjA5MDkxNjQ1MDRaMFsxCzAJBgNVBAYTAkFV
MRMwEQYDVQQIEwpTb21lLVN0YXRlMSEwHwYDVQQKExhJbnRlcm5ldCBXaWRnaXRz
IFB0eSBMdGQxFDASBgNVBAMTC2V4YW1wbGUuY29tMIGfMA0GCSqGSIb3DQEBAQUA
A4GNADCBiQKBgQDbldASyHjc68JvSurSzCHh6RZpEYQlxtAqTKlQeiPLibpA2RR6
chmQRCBGsF3y9m9T4vBq5RwOCE4OiZavl2ujvQq7X7hk0hLtZixkNpBBeGGVcoTa
UFPypAKispvufdS9JgcGKICvFuE7c5qT3UiYUgrNatKalQKlLLa36x/eXQIDAQAB
MA0GCSqGSIb3DQEBBAUAA4GBAHakPCDITaK/rDSTpFBYaPGmctvrJwD0LYGXy7h/
piFFU9wtpDpiZruLozCx6C3UGQ02Ii4dd/m8uJpHemBwgwRSpeAUyS4YOIp7ENoK
SEU/fJdlquoMrp93wJ8wHORVKSHPtLpgcrK+Timf0x/Dgu0Eh7cRP0pxhJ00uL9P
QfDt
-----END CERTIFICATE-----
