Certificate:
    Data:
        Version: 3 (0x2)
        Serial Number:
            31:b5:af:75:47:96:4c:4b:92:2b:9a:69:2b:90:7a:4b:ee:cb:cc:ed
        Signature Algorithm: sha256WithRSAEncryption
        Issuer: C=AU, ST=Some-State, O=Internet Widgits Pty Ltd, CN=demo.ca
        Validity
            Not Before: Jan 29 15:43:56 2020 GMT
            Not After : Jan 28 15:43:56 2023 GMT
        Subject: C=AU, ST=Some-State, O=Internet Widgits Pty Ltd, CN=demo.ca
        Subject Public Key Info:
            Public Key Algorithm: rsaEncryption
                RSA Public-Key: (2048 bit)
                Modulus:
                    00:ce:7a:79:30:9f:18:d7:0e:5e:f2:0f:72:28:db:
                    77:3e:b7:be:fb:58:e0:4d:4f:ef:d7:90:49:4e:08:
                    d0:9f:a7:ca:20:6c:1e:89:55:f6:73:d8:c5:ba:31:
                    e3:6a:7d:e9:a7:a2:db:0c:33:5d:8e:be:77:9b:2f:
                    74:06:1c:35:45:15:db:10:f4:69:ed:dc:b6:84:b6:
                    d1:e1:0b:f5:e0:f0:54:87:93:8d:60:d0:3f:e0:b9:
                    a2:5c:5d:58:61:80:90:53:5b:b8:47:97:fb:f0:09:
                    3f:07:ff:4e:f3:e0:8b:46:bc:82:e3:b6:d2:82:cb:
                    cf:4f:ab:3c:5b:a1:d1:28:60:dc:0d:73:f5:52:b1:
                    0c:bd:12:8c:7f:cb:66:74:d4:4b:a2:7a:67:1d:bd:
                    33:21:65:de:ae:f0:ee:5d:e5:dd:02:e7:68:1b:2e:
                    62:de:22:45:66:c0:ec:ce:3b:bf:bd:b4:98:44:19:
                    c3:49:14:69:da:e1:4e:5e:3e:1b:b6:1e:4f:0f:88:
                    8e:01:e1:5a:6f:95:73:08:c6:93:89:41:65:eb:c6:
                    78:70:35:17:fa:49:22:96:08:46:4e:a2:91:fc:d9:
                    85:0f:98:82:cc:3c:08:88:b9:b8:c8:b3:6c:b6:5f:
                    04:17:b6:dd:4a:8f:5e:91:26:b8:87:9e:03:a7:eb:
                    c8:0d
                Exponent: 65537 (0x10001)
        X509v3 extensions:
            X509v3 Subject Key Identifier: 
                B6:24:8F:53:D1:24:66:F2:1D:EA:4F:37:2B:F0:3A:3A:78:BA:5D:45
            X509v3 Authority Key Identifier: 
                keyid:B6:24:8F:53:D1:24:66:F2:1D:EA:4F:37:2B:F0:3A:3A:78:BA:5D:45

            X509v3 Basic Constraints: critical
                CA:TRUE
    Signature Algorithm: sha256WithRSAEncryption
         28:8c:33:58:32:56:5a:66:f8:eb:d8:24:17:38:15:52:63:a6:
         49:8e:22:a4:23:57:38:22:1c:75:0f:1e:d1:a8:97:86:61:49:
         ea:c2:bc:d1:53:91:d3:96:f0:2f:2d:41:df:14:c2:15:f5:a8:
         57:7a:e4:65:a6:c2:79:0d:8d:a4:8d:3c:2d:c9:3a:33:17:c2:
         0f:3c:4c:1c:f0:34:2b:16:1b:8e:da:a6:99:3b:3b:c2:6d:85:
         aa:3b:9b:aa:c7:44:ca:c5:73:76:db:bc:6f:f3:9a:47:4f:68:
         9f:ec:8c:21:27:02:88:9d:08:35:77:9e:a1:79:9e:88:b3:3d:
         2d:17:2b:17:79:8e:cd:25:9d:e2:62:00:60:ec:fb:01:4d:e0:
         e2:00:f0:16:dd:7b:d7:63:69:da:49:7b:a2:be:9d:76:7e:77:
         dc:1f:b1:85:f1:0a:dc:b8:28:aa:ae:00:df:34:04:ac:7e:43:
         8d:7c:20:c1:98:e3:c9:74:b9:b1:a0:61:dc:5f:1c:0e:46:b1:
         8c:d9:74:24:3d:e0:14:73:f7:b1:65:c9:73:2b:99:1e:e2:b5:
         a4:9b:40:e8:0b:fb:28:1e:40:8f:93:01:3b:2c:57:12:d1:4c:
         ef:9b:26:f9:39:13:d2:c9:c0:55:4b:99:92:d7:77:33:ed:80:
         32:2f:fc:24
-----BEGIN CERTIFICATE-----
MIIDjzCCAnegAwIBAgIUMbWvdUeWTEuSK5ppK5B6S+7LzO0wDQYJKoZIhvcNAQEL
BQAwVzELMAkGA1UEBhMCQVUxEzARBgNVBAgMClNvbWUtU3RhdGUxITAfBgNVBAoM
GEludGVybmV0IFdpZGdpdHMgUHR5IEx0ZDEQMA4GA1UEAwwHZGVtby5jYTAeFw0y
MDAxMjkxNTQzNTZaFw0yMzAxMjgxNTQzNTZaMFcxCzAJBgNVBAYTAkFVMRMwEQYD
VQQIDApTb21lLVN0YXRlMSEwHwYDVQQKDBhJbnRlcm5ldCBXaWRnaXRzIFB0eSBM
dGQxEDAOBgNVBAMMB2RlbW8uY2EwggEiMA0GCSqGSIb3DQEBAQUAA4IBDwAwggEK
AoIBAQDOenkwnxjXDl7yD3Io23c+t777WOBNT+/XkElOCNCfp8ogbB6JVfZz2MW6
MeNqfemnotsMM12OvnebL3QGHDVFFdsQ9Gnt3LaEttHhC/Xg8FSHk41g0D/guaJc
XVhhgJBTW7hHl/vwCT8H/07z4ItGvILjttKCy89PqzxbodEoYNwNc/VSsQy9Eox/
y2Z01EuiemcdvTMhZd6u8O5d5d0C52gbLmLeIkVmwOzOO7+9tJhEGcNJFGna4U5e
Phu2Hk8PiI4B4VpvlXMIxpOJQWXrxnhwNRf6SSKWCEZOopH82YUPmILMPAiIubjI
s2y2XwQXtt1Kj16RJriHngOn68gNAgMBAAGjUzBRMB0GA1UdDgQWBBS2JI9T0SRm
8h3qTzcr8Do6eLpdRTAfBgNVHSMEGDAWgBS2JI9T0SRm8h3qTzcr8Do6eLpdRTAP
BgNVHRMBAf8EBTADAQH/MA0GCSqGSIb3DQEBCwUAA4IBAQAojDNYMlZaZvjr2CQX
OBVSY6ZJjiKkI1c4Ihx1Dx7RqJeGYUnqwrzRU5HTlvAvLUHfFMIV9ahXeuRlpsJ5
DY2kjTwtyTozF8IPPEwc8DQrFhuO2qaZOzvCbYWqO5uqx0TKxXN227xv85pHT2if
7IwhJwKInQg1d56heZ6Isz0tFysXeY7NJZ3iYgBg7PsBTeDiAPAW3XvXY2naSXui
vp12fnfcH7GF8QrcuCiqrgDfNASsfkONfCDBmOPJdLmxoGHcXxwORrGM2XQkPeAU
c/exZclzK5ke4rWkm0DoC/soHkCPkwE7LFcS0Uzvmyb5ORPSycBVS5mS13cz7YAy
L/wk
-----END CERTIFICATE-----
