Certificate:
    Data:
        Version: 3 (0x2)
        Serial Number:
            7f:e0:e8:27:56:77:9b:da:39:df:f3:ae:e1:69:16:de:98:4f:fd:24
        Signature Algorithm: sha256WithRSAEncryption
        Issuer: C=AU, ST=Some-State, O=Internet Widgits Pty Ltd, CN=demo.ca
        Validity
            Not Before: Apr 20 11:09:21 2024 GMT
            Not After : Apr 20 11:09:21 2027 GMT
        Subject: C=AU, ST=Some-State, O=Internet Widgits Pty Ltd, CN=demo.ca
        Subject Public Key Info:
            Public Key Algorithm: rsaEncryption
                Public-Key: (2048 bit)
                Modulus:
                    00:a0:8b:ba:ec:b2:e2:fc:47:b9:a8:dd:59:a9:47:
                    49:37:0a:b0:61:c5:ee:ee:73:bc:f6:ad:9a:cc:f2:
                    e3:d9:82:86:a7:a9:ef:5b:9d:2e:b9:42:18:c6:46:
                    01:b9:3d:15:0c:89:7b:c2:7a:bc:17:de:54:43:4a:
                    89:55:53:a1:cf:7c:5b:7a:d2:c7:45:fe:da:da:d3:
                    a6:c5:24:55:d7:69:8b:85:db:d1:bf:47:43:45:bb:
                    b4:74:48:50:91:99:81:84:b5:d6:35:d4:66:c6:d0:
                    69:b4:7b:8e:f8:47:f4:f7:47:a8:a5:01:87:40:d4:
                    41:57:4e:93:13:0a:41:22:14:2d:e3:dc:ac:00:70:
                    2d:d1:cf:08:28:d9:7b:64:d3:dd:48:ad:ce:75:57:
                    90:3f:9d:c3:d3:8c:d3:80:44:96:4e:71:71:7c:db:
                    f7:d1:1f:3a:09:2d:13:4c:de:c7:19:5c:c1:b6:cb:
                    ca:91:f8:d6:7e:22:32:aa:d4:51:5d:69:6a:df:34:
                    81:99:8c:fd:0e:22:30:17:89:20:15:ff:b5:00:a9:
                    49:aa:f3:d5:65:e5:c8:9d:bf:c7:8f:fa:7f:56:77:
                    e0:5d:b4:86:a6:d7:70:d6:f6:76:8b:fe:88:84:2b:
                    2b:28:81:27:59:45:08:3b:39:52:d0:df:00:9d:b8:
                    54:c7
                Exponent: 65537 (0x10001)
        X509v3 extensions:
            X509v3 Subject Key Identifier: 
                8F:B4:94:C8:7F:CB:EF:00:89:B2:F6:C1:BE:44:4B:1C:12:54:3B:28
            X509v3 Authority Key Identifier: 
                8F:B4:94:C8:7F:CB:EF:00:89:B2:F6:C1:BE:44:4B:1C:12:54:3B:28
            X509v3 Basic Constraints: critical
                CA:TRUE
    Signature Algorithm: sha256WithRSAEncryption
    Signature Value:
        28:9d:22:51:f2:3a:0b:48:0c:8c:fa:8b:be:a4:3b:5d:dc:33:
        d9:07:f0:f8:1a:cb:99:15:59:a1:87:0c:5c:8e:de:a8:96:57:
        8c:50:c2:ba:ef:fd:c4:03:0b:d8:6d:9e:3a:02:9c:99:43:2e:
        b5:bf:9b:d6:81:1a:40:b1:61:50:0b:3f:da:84:85:e2:55:c7:
        a6:88:d9:ed:b8:df:b6:33:03:3c:47:e3:f8:ac:df:cc:ab:2a:
        7a:a0:bf:73:6c:25:97:a4:7d:60:1d:24:6c:31:d8:b6:98:f1:
        8a:2e:3c:f0:7e:d1:fa:65:0a:6a:64:e3:bd:3f:ad:bb:8e:9d:
        02:b8:46:90:70:ed:40:3a:3c:9b:8b:97:cf:c2:f3:31:e4:f4:
        4c:7d:7a:f8:7e:ee:3e:47:cf:de:d8:8d:ce:3c:d0:96:36:5f:
        8e:eb:23:de:de:95:cc:73:5b:e3:1e:0e:30:55:86:32:03:74:
        35:74:bd:96:91:78:c8:75:27:0b:3e:8e:2b:0b:69:a9:27:d2:
        1b:cf:8a:74:d9:ce:90:e2:b6:fa:bb:d9:9b:18:f5:42:49:c9:
        86:91:14:fe:e2:df:3a:63:f2:c8:31:57:7c:17:bb:d8:73:b5:
        e5:4f:2a:b7:97:f2:c0:ef:12:db:15:16:d2:c2:8e:e9:0f:c7:
        63:3f:9d:52
-----BEGIN CERTIFICATE-----
MIIDjzCCAnegAwIBAgIUf+DoJ1Z3m9o53/Ou4WkW3phP/SQwDQYJKoZIhvcNAQEL
BQAwVzELMAkGA1UEBhMCQVUxEzARBgNVBAgMClNvbWUtU3RhdGUxITAfBgNVBAoM
GEludGVybmV0IFdpZGdpdHMgUHR5IEx0ZDEQMA4GA1UEAwwHZGVtby5jYTAeFw0y
NDA0MjAxMTA5MjFaFw0yNzA0MjAxMTA5MjFaMFcxCzAJBgNVBAYTAkFVMRMwEQYD
VQQIDApTb21lLVN0YXRlMSEwHwYDVQQKDBhJbnRlcm5ldCBXaWRnaXRzIFB0eSBM
dGQxEDAOBgNVBAMMB2RlbW8uY2EwggEiMA0GCSqGSIb3DQEBAQUAA4IBDwAwggEK
AoIBAQCgi7rssuL8R7mo3VmpR0k3CrBhxe7uc7z2rZrM8uPZgoanqe9bnS65QhjG
RgG5PRUMiXvCerwX3lRDSolVU6HPfFt60sdF/tra06bFJFXXaYuF29G/R0NFu7R0
SFCRmYGEtdY11GbG0Gm0e474R/T3R6ilAYdA1EFXTpMTCkEiFC3j3KwAcC3Rzwgo
2Xtk091Irc51V5A/ncPTjNOARJZOcXF82/fRHzoJLRNM3scZXMG2y8qR+NZ+IjKq
1FFdaWrfNIGZjP0OIjAXiSAV/7UAqUmq89Vl5cidv8eP+n9Wd+BdtIam13DW9naL
/oiEKysogSdZRQg7OVLQ3wCduFTHAgMBAAGjUzBRMB0GA1UdDgQWBBSPtJTIf8vv
AImy9sG+REscElQ7KDAfBgNVHSMEGDAWgBSPtJTIf8vvAImy9sG+REscElQ7KDAP
BgNVHRMBAf8EBTADAQH/MA0GCSqGSIb3DQEBCwUAA4IBAQAonSJR8joLSAyM+ou+
pDtd3DPZB/D4GsuZFVmhhwxcjt6olleMUMK67/3EAwvYbZ46ApyZQy61v5vWgRpA
sWFQCz/ahIXiVcemiNntuN+2MwM8R+P4rN/Mqyp6oL9zbCWXpH1gHSRsMdi2mPGK
LjzwftH6ZQpqZOO9P627jp0CuEaQcO1AOjybi5fPwvMx5PRMfXr4fu4+R8/e2I3O
PNCWNl+O6yPe3pXMc1vjHg4wVYYyA3Q1dL2WkXjIdScLPo4rC2mpJ9Ibz4p02c6Q
4rb6u9mbGPVCScmGkRT+4t86Y/LIMVd8F7vYc7XlTyq3l/LA7xLbFRbSwo7pD8dj
P51S
-----END CERTIFICATE-----
