Certificate:
    Data:
        Version: 3 (0x2)
        Serial Number: 17348753982565434861 (0xf0c327d45a74c5ed)
    Signature Algorithm: sha256WithRSAEncryption
        Issuer: C=AU, ST=Some-State, O=Demo Cert Authority, CN=demo.ca
        Validity
            Not Before: Nov  4 10:19:53 2016 GMT
            Not After : Nov  4 10:19:53 2019 GMT
        Subject: C=AU, ST=Some-State, O=Demo Cert Authority, CN=demo.ca
        Subject Public Key Info:
            Public Key Algorithm: rsaEncryption
                Public-Key: (2048 bit)
                Modulus:
                    00:cc:46:d2:80:24:a9:e7:cd:76:bd:aa:e6:53:12:
                    ba:4a:05:96:94:63:d5:c6:06:6f:85:ce:7d:15:2d:
                    41:26:1d:d2:dd:da:d5:35:ec:80:dd:94:ec:b7:e4:
                    4b:b6:e2:2d:f4:72:c0:a0:c5:bf:f3:ba:b9:5f:fc:
                    a2:be:c0:f7:be:39:1c:3b:93:52:32:85:e6:29:00:
                    c7:9f:3b:8a:c1:ed:77:e3:8d:c0:f6:1c:98:c1:0a:
                    98:85:b8:0c:b5:57:ba:75:e9:6f:f2:87:ad:df:36:
                    32:20:92:5b:b3:85:8a:18:f1:d5:da:e6:3b:08:52:
                    15:b4:65:3b:c0:d4:f9:21:9e:f6:f9:22:e7:3d:1e:
                    de:1f:7b:d9:16:bc:06:58:26:3b:ff:16:46:c3:2f:
                    43:99:a4:5b:01:78:9e:1e:86:6d:c3:5b:63:82:8f:
                    76:21:54:50:13:7f:a8:6f:d9:2f:72:96:64:e6:0c:
                    bc:5b:9e:64:a9:f1:e0:54:7f:04:d6:41:f9:56:c4:
                    e7:06:5a:38:c3:9a:91:fd:8d:a9:99:b8:50:9c:1d:
                    7b:e2:62:ab:22:4b:ff:fc:ab:94:3b:ba:98:1d:6b:
                    96:11:0a:06:6b:38:5d:61:51:80:6f:6a:32:a8:88:
                    91:0b:a8:94:8b:bb:51:41:82:f9:e9:81:17:79:22:
                    20:37
                Exponent: 65537 (0x10001)
        X509v3 extensions:
            X509v3 Subject Key Identifier: 
                BA:5E:E9:90:3B:5B:F6:79:A2:D3:65:09:C5:39:6A:E7:43:6B:F8:3D
            X509v3 Authority Key Identifier: 
                keyid:BA:5E:E9:90:3B:5B:F6:79:A2:D3:65:09:C5:39:6A:E7:43:6B:F8:3D

            X509v3 Basic Constraints: 
                CA:TRUE
    Signature Algorithm: sha256WithRSAEncryption
         60:2b:a7:03:49:1f:67:0a:b3:34:12:80:4f:b3:9e:1e:12:a5:
         77:61:45:3b:6f:6d:92:10:c5:a1:c2:3a:c7:b5:a5:7c:8c:bd:
         76:c9:fb:db:9f:0f:fb:89:df:3c:03:f8:87:9d:01:04:75:45:
         1d:2f:43:6a:b6:d6:6c:43:dd:b4:b4:c4:ba:26:99:00:5f:02:
         fc:2c:ce:af:a3:7f:96:09:8d:04:46:ea:2a:79:f5:98:68:28:
         a0:31:1d:c2:2a:d3:82:33:20:4e:df:c6:f7:d9:65:d7:99:56:
         ce:c7:c5:4b:00:a8:e4:53:4a:e2:87:fe:76:93:57:49:d2:09:
         44:ce:a6:7b:3a:69:6d:02:5e:7e:86:00:25:ea:bf:47:30:88:
         be:1a:a2:12:b7:12:c7:dd:04:4e:41:f6:3f:49:ad:9a:58:d1:
         72:17:21:89:e2:c2:00:58:4b:11:b0:04:94:9b:c2:dc:26:8f:
         76:48:fd:2c:2e:4c:24:c8:29:24:3c:1e:fc:3a:ce:7a:5b:92:
         e1:14:d4:a2:d0:a1:9d:0f:92:cb:d4:2f:de:39:36:0b:ae:fa:
         98:45:c4:da:00:1a:13:cf:22:d1:4e:e9:33:8e:a5:30:f7:ae:
         f2:91:ed:7e:f8:aa:be:4b:06:30:85:f5:31:6f:c1:19:a5:f4:
         91:61:2c:53
-----BEGIN CERTIFICATE-----
MIIDdzCCAl+gAwIBAgIJAPDDJ9RadMXtMA0GCSqGSIb3DQEBCwUAMFIxCzAJBgNV
BAYTAkFVMRMwEQYDVQQIDApTb21lLVN0YXRlMRwwGgYDVQQKDBNEZW1vIENlcnQg
QXV0aG9yaXR5MRAwDgYDVQQDDAdkZW1vLmNhMB4XDTE2MTEwNDEwMTk1M1oXDTE5
MTEwNDEwMTk1M1owUjELMAkGA1UEBhMCQVUxEzARBgNVBAgMClNvbWUtU3RhdGUx
HDAaBgNVBAoME0RlbW8gQ2VydCBBdXRob3JpdHkxEDAOBgNVBAMMB2RlbW8uY2Ew
ggEiMA0GCSqGSIb3DQEBAQUAA4IBDwAwggEKAoIBAQDMRtKAJKnnzXa9quZTErpK
BZaUY9XGBm+Fzn0VLUEmHdLd2tU17IDdlOy35Eu24i30csCgxb/zurlf/KK+wPe+
ORw7k1IyheYpAMefO4rB7XfjjcD2HJjBCpiFuAy1V7p16W/yh63fNjIgkluzhYoY
8dXa5jsIUhW0ZTvA1Pkhnvb5Iuc9Ht4fe9kWvAZYJjv/FkbDL0OZpFsBeJ4ehm3D
W2OCj3YhVFATf6hv2S9ylmTmDLxbnmSp8eBUfwTWQflWxOcGWjjDmpH9jamZuFCc
HXviYqsiS//8q5Q7upgda5YRCgZrOF1hUYBvajKoiJELqJSLu1FBgvnpgRd5IiA3
AgMBAAGjUDBOMB0GA1UdDgQWBBS6XumQO1v2eaLTZQnFOWrnQ2v4PTAfBgNVHSME
GDAWgBS6XumQO1v2eaLTZQnFOWrnQ2v4PTAMBgNVHRMEBTADAQH/MA0GCSqGSIb3
DQEBCwUAA4IBAQBgK6cDSR9nCrM0EoBPs54eEqV3YUU7b22SEMWhwjrHtaV8jL12
yfvbnw/7id88A/iHnQEEdUUdL0NqttZsQ920tMS6JpkAXwL8LM6vo3+WCY0ERuoq
efWYaCigMR3CKtOCMyBO38b32WXXmVbOx8VLAKjkU0rih/52k1dJ0glEzqZ7Omlt
Al5+hgAl6r9HMIi+GqIStxLH3QROQfY/Sa2aWNFyFyGJ4sIAWEsRsASUm8LcJo92
SP0sLkwkyCkkPB78Os56W5LhFNSi0KGdD5LL1C/eOTYLrvqYRcTaABoTzyLRTukz
jqUw967yke1++Kq+SwYwhfUxb8EZpfSRYSxT
-----END CERTIFICATE-----
