Certificate:
    Data:
        Version: 3 (0x2)
        Serial Number: 17338272400282526649 (0xf09deae2cdcca3b9)
    Signature Algorithm: sha256WithRSAEncryption
        Issuer: C=AU, ST=Some-State, O=Demo Cert Authority, CN=demo.ca/emailAddress=demo@demo.ca
        Validity
            Not Before: May 15 15:48:17 2018 GMT
            Not After : May 14 15:48:17 2021 GMT
        Subject: C=AU, ST=Some-State, O=Demo Cert Authority, CN=demo.ca/emailAddress=demo@demo.ca
        Subject Public Key Info:
            Public Key Algorithm: rsaEncryption
                Public-Key: (2048 bit)
                Modulus:
                    00:bd:21:9b:ed:0f:28:f6:85:d4:f2:81:d0:e5:23:
                    04:ca:d3:be:0f:4f:dc:06:52:34:78:0b:e7:00:f4:
                    49:42:17:27:4d:0a:4a:03:7c:6b:05:e0:71:a6:ad:
                    39:68:a7:90:d8:48:fe:be:a7:2e:a0:c2:e2:46:a7:
                    c9:c9:e4:f9:bb:8a:6a:a9:80:b0:e7:81:04:ae:d9:
                    68:11:d1:9a:a7:4f:80:11:af:37:36:32:83:45:62:
                    c8:96:0a:25:9c:90:04:df:8d:a8:45:94:6a:23:93:
                    c0:2d:f3:8e:22:9c:a4:1d:ce:11:c8:9f:96:ab:44:
                    8c:3d:45:eb:d6:9f:86:c3:1f:bf:5e:f1:96:41:70:
                    92:4f:04:b7:58:8e:b8:68:71:4a:95:c4:2c:5c:2e:
                    90:9f:81:36:4e:44:ac:b4:24:1c:8d:1e:1f:f6:81:
                    29:f0:a1:30:23:9c:78:92:b2:56:86:1a:bf:48:46:
                    80:a0:ca:a8:b8:1d:58:dd:48:d4:f8:ba:49:4a:56:
                    17:8f:f2:99:23:0f:3d:89:b7:d8:02:6c:eb:40:ad:
                    1a:de:9c:00:8c:b8:b3:75:86:72:2e:a2:87:cd:1e:
                    95:7c:e2:81:19:fc:ae:3f:a0:f8:34:cb:2b:1c:9d:
                    0e:1d:d8:d7:30:2e:b0:b9:8e:83:e7:d2:96:07:67:
                    83:15
                Exponent: 65537 (0x10001)
        X509v3 extensions:
            X509v3 Subject Key Identifier: 
                C6:17:42:6B:7F:B6:44:30:67:01:3D:44:83:9D:0F:B4:52:A1:D7:B7
            X509v3 Authority Key Identifier: 
                keyid:C6:17:42:6B:7F:B6:44:30:67:01:3D:44:83:9D:0F:B4:52:A1:D7:B7

            X509v3 Basic Constraints: 
                CA:TRUE
    Signature Algorithm: sha256WithRSAEncryption
         78:30:7f:de:72:fe:c5:b2:21:b5:36:a8:93:f9:01:5e:d2:83:
         56:ac:35:59:36:a9:6a:67:cc:d6:fa:58:aa:06:a7:ad:4b:7d:
         21:39:ef:7b:57:14:e4:6a:9b:1d:a1:cb:78:f9:a4:4d:d4:b7:
         a3:a6:0f:8e:3a:32:12:f3:9c:f9:e4:95:36:82:90:ae:7c:25:
         2b:1d:72:7e:25:0e:de:f5:bd:84:1b:3d:c1:a3:4f:7a:82:38:
         f9:54:aa:0a:8b:e4:4e:5f:b4:28:b3:8a:a6:c4:7c:ed:85:a0:
         46:2b:0f:5b:80:c6:13:84:89:a3:18:dc:73:ce:58:73:8e:61:
         4f:b1:af:64:64:d1:89:c5:60:5e:39:37:52:2b:36:ab:f2:dd:
         54:e4:f7:b7:29:52:14:b5:83:6f:41:fb:b1:54:e3:ed:85:dd:
         25:8e:bf:80:5b:44:3b:cd:a9:c0:21:b9:aa:68:c3:73:25:8b:
         ef:e6:e0:76:0d:01:90:aa:09:ef:1a:9c:37:3b:3b:a6:63:8e:
         d8:c6:4a:6e:c3:7d:71:8b:34:55:f8:6b:53:d9:79:6f:a1:c2:
         ee:f0:83:3c:9f:da:68:60:e5:2b:58:31:d2:be:22:cb:ef:ed:
         81:f4:62:b8:39:1c:9d:67:10:59:80:48:92:3f:2f:c1:6e:2d:
         91:4c:67:33
-----BEGIN CERTIFICATE-----
MIIDsTCCApmgAwIBAgIJAPCd6uLNzKO5MA0GCSqGSIb3DQEBCwUAMG8xCzAJBgNV
BAYTAkFVMRMwEQYDVQQIDApTb21lLVN0YXRlMRwwGgYDVQQKDBNEZW1vIENlcnQg
QXV0aG9yaXR5MRAwDgYDVQQDDAdkZW1vLmNhMRswGQYJKoZIhvcNAQkBFgxkZW1v
QGRlbW8uY2EwHhcNMTgwNTE1MTU0ODE3WhcNMjEwNTE0MTU0ODE3WjBvMQswCQYD
VQQGEwJBVTETMBEGA1UECAwKU29tZS1TdGF0ZTEcMBoGA1UECgwTRGVtbyBDZXJ0
IEF1dGhvcml0eTEQMA4GA1UEAwwHZGVtby5jYTEbMBkGCSqGSIb3DQEJARYMZGVt
b0BkZW1vLmNhMIIBIjANBgkqhkiG9w0BAQEFAAOCAQ8AMIIBCgKCAQEAvSGb7Q8o
9oXU8oHQ5SMEytO+D0/cBlI0eAvnAPRJQhcnTQpKA3xrBeBxpq05aKeQ2Ej+vqcu
oMLiRqfJyeT5u4pqqYCw54EErtloEdGap0+AEa83NjKDRWLIlgolnJAE342oRZRq
I5PALfOOIpykHc4RyJ+Wq0SMPUXr1p+Gwx+/XvGWQXCSTwS3WI64aHFKlcQsXC6Q
n4E2TkSstCQcjR4f9oEp8KEwI5x4krJWhhq/SEaAoMqouB1Y3UjU+LpJSlYXj/KZ
Iw89ibfYAmzrQK0a3pwAjLizdYZyLqKHzR6VfOKBGfyuP6D4NMsrHJ0OHdjXMC6w
uY6D59KWB2eDFQIDAQABo1AwTjAdBgNVHQ4EFgQUxhdCa3+2RDBnAT1Eg50PtFKh
17cwHwYDVR0jBBgwFoAUxhdCa3+2RDBnAT1Eg50PtFKh17cwDAYDVR0TBAUwAwEB
/zANBgkqhkiG9w0BAQsFAAOCAQEAeDB/3nL+xbIhtTaok/kBXtKDVqw1WTapamfM
1vpYqganrUt9ITnve1cU5GqbHaHLePmkTdS3o6YPjjoyEvOc+eSVNoKQrnwlKx1y
fiUO3vW9hBs9waNPeoI4+VSqCovkTl+0KLOKpsR87YWgRisPW4DGE4SJoxjcc85Y
c45hT7GvZGTRicVgXjk3Uis2q/LdVOT3tylSFLWDb0H7sVTj7YXdJY6/gFtEO82p
wCG5qmjDcyWL7+bgdg0BkKoJ7xqcNzs7pmOO2MZKbsN9cYs0VfhrU9l5b6HC7vCD
PJ/aaGDlK1gx0r4iy+/tgfRiuDkcnWcQWYBIkj8vwW4tkUxnMw==
-----END CERTIFICATE-----
